; Function Attrs: mustprogress uwtable
define hidden void @_ZN5nlsat6solver8get_coreER6vectorIPvLb0EjE(ptr nocapture noundef nonnull readonly align 8 dereferenceable(16) %this, ptr noundef nonnull align 8 dereferenceable(8) %assumptions) local_unnamed_addr #4 align 2 {
entry:
  %0 = load ptr, ptr %this, align 8
  %m_lemma_assumptions.i = getelementptr inbounds i8, ptr %0, i64 688
  %1 = load ptr, ptr %m_lemma_assumptions.i, align 8
  %tobool.not.i.i = icmp eq ptr %1, null
  br i1 %tobool.not.i.i, label %_ZN5nlsat6solver3imp8get_coreER6vectorIPvLb0EjE.exit, label %if.end.i.i

if.end.i.i:                                       ; preds = %entry
  %bf.load.i.i.i = load i32, ptr %1, align 4
  %bf.set.i.i.i = or i32 %bf.load.i.i.i, 1073741824
  store i32 %bf.set.i.i.i, ptr %1, align 4
  %m_todo.i.i = getelementptr inbounds i8, ptr %0, i64 88
  %2 = load ptr, ptr %m_todo.i.i, align 8
  %cmp.i.i.i = icmp eq ptr %2, null
  br i1 %cmp.i.i.i, label %if.then.i.i.i, label %lor.lhs.false.i.i.i

lor.lhs.false.i.i.i:                              ; preds = %if.end.i.i
  %arrayidx.i.i.i = getelementptr inbounds i8, ptr %2, i64 -4
  %3 = load i32, ptr %arrayidx.i.i.i, align 4
  %arrayidx4.i.i.i = getelementptr inbounds i8, ptr %2, i64 -8
  %4 = load i32, ptr %arrayidx4.i.i.i, align 4
  %cmp5.i.i.i = icmp eq i32 %3, %4
  br i1 %cmp5.i.i.i, label %if.then.i.i.i, label %_ZN6vectorIPN18dependency_managerIN5nlsat6solver3imp7dconfigEE10dependencyELb0EjE9push_backERKS7_.exit.i.i

if.then.i.i.i:                                    ; preds = %lor.lhs.false.i.i.i, %if.end.i.i
  tail call void @_ZN6vectorIPN18dependency_managerIN5nlsat6solver3imp7dconfigEE10dependencyELb0EjE13expand_vectorEv(ptr noundef nonnull align 8 dereferenceable(8) %m_todo.i.i)
  %.pre.i.i.i = load ptr, ptr %m_todo.i.i, align 8
  %arrayidx8.phi.trans.insert.i.i.i = getelementptr inbounds i8, ptr %.pre.i.i.i, i64 -4
  %.pre1.i.i.i = load i32, ptr %arrayidx8.phi.trans.insert.i.i.i, align 4
  br label %_ZN6vectorIPN18dependency_managerIN5nlsat6solver3imp7dconfigEE10dependencyELb0EjE9push_backERKS7_.exit.i.i

_ZN6vectorIPN18dependency_managerIN5nlsat6solver3imp7dconfigEE10dependencyELb0EjE9push_backERKS7_.exit.i.i: ; preds = %if.then.i.i.i, %lor.lhs.false.i.i.i
  %5 = phi i32 [ %.pre1.i.i.i, %if.then.i.i.i ], [ %3, %lor.lhs.false.i.i.i ]
  %6 = phi ptr [ %.pre.i.i.i, %if.then.i.i.i ], [ %2, %lor.lhs.false.i.i.i ]
  %idx.ext.i.i.i = zext i32 %5 to i64
  %add.ptr.i.i.i = getelementptr inbounds ptr, ptr %6, i64 %idx.ext.i.i.i
  store ptr %1, ptr %add.ptr.i.i.i, align 8
  %7 = load ptr, ptr %m_todo.i.i, align 8
  %arrayidx10.i.i.i = getelementptr inbounds i8, ptr %7, i64 -4
  %8 = load i32, ptr %arrayidx10.i.i.i, align 4
  %inc.i.i.i = add i32 %8, 1
  store i32 %inc.i.i.i, ptr %arrayidx10.i.i.i, align 4
  tail call void @_ZN18dependency_managerIN5nlsat6solver3imp7dconfigEE14linearize_todoER10ptr_vectorINS4_10dependencyEER6vectorIPvLb0EjE(ptr noundef nonnull align 8 dereferenceable(8) %m_todo.i.i, ptr noundef nonnull align 8 dereferenceable(8) %assumptions)
  %9 = load ptr, ptr %m_todo.i.i, align 8
  %tobool.not.i.i.i = icmp eq ptr %9, null
  br i1 %tobool.not.i.i.i, label %_ZN5nlsat6solver3imp8get_coreER6vectorIPvLb0EjE.exit, label %if.then.i1.i.i

if.then.i1.i.i:                                   ; preds = %_ZN6vectorIPN18dependency_managerIN5nlsat6solver3imp7dconfigEE10dependencyELb0EjE9push_backERKS7_.exit.i.i
  %arrayidx.i2.i.i = getelementptr inbounds i8, ptr %9, i64 -4
  store i32 0, ptr %arrayidx.i2.i.i, align 4
  br label %_ZN5nlsat6solver3imp8get_coreER6vectorIPvLb0EjE.exit

_ZN5nlsat6solver3imp8get_coreER6vectorIPvLb0EjE.exit: ; preds = %entry, %_ZN6vectorIPN18dependency_managerIN5nlsat6solver3imp7dconfigEE10dependencyELb0EjE9push_backERKS7_.exit.i.i, %if.then.i1.i.i
  ret void
}